; ModuleID = '44/728.c'
source_filename = "44/728.c"
target datalayout = "e-m:e-p270:32:32-p271:32:32-p272:64:64-i64:64-f80:128-n8:16:32:64-S128"
target triple = "x86_64-pc-linux-gnu"

@.str = private unnamed_addr constant [3 x i8] c"%d\00", align 1
@.str.1 = private unnamed_addr constant [4 x i8] c"%d\0A\00", align 1

; Function Attrs: noinline nounwind uwtable
define dso_local i32 @reverse(i32 %0) #0 {
  %2 = alloca i32, align 4
  %3 = alloca i32, align 4
  %4 = alloca i32, align 4
  %5 = alloca i32, align 4
  %6 = alloca i32, align 4
  store i32 %0, i32* %3, align 4
  store i32 0, i32* %6, align 4
  store i32 100000000, i32* %4, align 4
  br label %7

7:                                                ; preds = %34, %1
  %8 = load i32, i32* %4, align 4
  %9 = icmp sge i32 %8, 1
  br i1 %9, label %10, label %37

10:                                               ; preds = %7
  %11 = load i32, i32* %3, align 4
  %12 = load i32, i32* %4, align 4
  %13 = sdiv i32 %11, %12
  %14 = icmp ne i32 %13, 0
  br i1 %14, label %15, label %33

15:                                               ; preds = %10
  store i32 1, i32* %5, align 4
  br label %16

16:                                               ; preds = %28, %15
  %17 = load i32, i32* %5, align 4
  %18 = load i32, i32* %4, align 4
  %19 = icmp sle i32 %17, %18
  br i1 %19, label %20, label %31

20:                                               ; preds = %16
  %21 = load i32, i32* %6, align 4
  %22 = mul nsw i32 10, %21
  %23 = load i32, i32* %3, align 4
  %24 = srem i32 %23, 10
  %25 = add nsw i32 %22, %24
  store i32 %25, i32* %6, align 4
  %26 = load i32, i32* %3, align 4
  %27 = sdiv i32 %26, 10
  store i32 %27, i32* %3, align 4
  br label %28

28:                                               ; preds = %20
  %29 = load i32, i32* %5, align 4
  %30 = mul nsw i32 %29, 10
  store i32 %30, i32* %5, align 4
  br label %16

31:                                               ; preds = %16
  %32 = load i32, i32* %6, align 4
  store i32 %32, i32* %2, align 4
  br label %38

33:                                               ; preds = %10
  br label %34

34:                                               ; preds = %33
  %35 = load i32, i32* %4, align 4
  %36 = sdiv i32 %35, 10
  store i32 %36, i32* %4, align 4
  br label %7

37:                                               ; preds = %7
  store i32 0, i32* %2, align 4
  br label %38

38:                                               ; preds = %37, %31
  %39 = load i32, i32* %2, align 4
  ret i32 %39
}

; Function Attrs: noinline nounwind uwtable
define dso_local i32 @main() #0 {
  %1 = alloca i32, align 4
  %2 = alloca i32, align 4
  %3 = alloca i32, align 4
  store i32 0, i32* %1, align 4
  store i32 0, i32* %3, align 4
  br label %4

4:                                                ; preds = %12, %0
  %5 = load i32, i32* %3, align 4
  %6 = icmp slt i32 %5, 6
  br i1 %6, label %7, label %15

7:                                                ; preds = %4
  %8 = call i32 (i8*, ...) @__isoc99_scanf(i8* getelementptr inbounds ([3 x i8], [3 x i8]* @.str, i64 0, i64 0), i32* %2)
  %9 = load i32, i32* %2, align 4
  %10 = call i32 @reverse(i32 %9)
  %11 = call i32 (i8*, ...) @printf(i8* getelementptr inbounds ([4 x i8], [4 x i8]* @.str.1, i64 0, i64 0), i32 %10)
  br label %12

12:                                               ; preds = %7
  %13 = load i32, i32* %3, align 4
  %14 = add nsw i32 %13, 1
  store i32 %14, i32* %3, align 4
  br label %4

15:                                               ; preds = %4
  ret i32 0
}

declare dso_local i32 @__isoc99_scanf(i8*, ...) #1

declare dso_local i32 @printf(i8*, ...) #1


!llvm.module.flags = !{!0}
!llvm.ident = !{!1}

!0 = !{i32 1, !"wchar_size", i32 4}
!1 = !{!"clang version 10.0.0-4ubuntu1 "}
